(dp0
S'6px'
p1
I5
sS'NYT'
p2
I3
sS'0833'
p3
I1
sS'NYC'
p4
I3
sS'ERIC'
p5
I1
sS'React'
p6
I1
sS'pageManagertrackingFireEventQueue'
p7
I1
sS'Watch'
p8
I2
sS'urlhttpcssnytcomimagesiconsbullet4x4gif'
p9
I1
sS'Nytimescom'
p10
I1
sS'Western'
p11
I1
sS'under'
p12
I1
sS'Cases'
p13
I1
sS'348'
p14
I1
sS'h3containsThe'
p15
I1
sS'BYU'
p16
I1
sS'envar'
p17
I1
sS'AttacksNYT'
p18
I1
sS'Concert'
p19
I1
sS'tickets'
p20
I1
sS'nrrequireforvar'
p21
I1
sS'Heightens'
p22
I1
sS'FRANCE'
p23
I1
sS'abovebannerregion'
p24
I1
sS'fontweight'
p25
I14
sS'Go'
p26
I4
sS'0052'
p27
I1
sS'0051'
p28
I1
sS'Accent'
p29
I1
sS'likely'
p30
I1
sS'Version'
p31
I1
sS'Theater'
p32
I3
sS'YorkcreditHilary'
p33
I1
sS'fivebedroom'
p34
I1
sS'16px18px'
p35
I1
sS'Hamilton'
p36
I1
sS'new'
p37
I9
sS'widget'
p38
I2
sS'WashingtonshortA'
p39
I1
sS'PARIS'
p40
I1
sS'Adjusts'
p41
I1
sS'wrapping'
p42
I1
sS'kicker'
p43
I4
sS'100'
p44
I1
sS'200px'
p45
I1
sS'135rem'
p46
I1
sS'credit'
p47
I2
sS'Market'
p48
I2
sS'military'
p49
I1
sS'Group'
p50
I1
sS'sansserif'
p51
I4
sS'Privacy'
p52
I1
sS'Support'
p53
I1
sS'Three'
p54
I3
sS'Eyes\xe2\x80\x99'
p55
I1
sS'Book'
p56
I1
sS'Health'
p57
I5
sS'Senator'
p58
I1
sS'Dispute'
p59
I2
sS'acolumn'
p60
I4
sS'would'
p61
I1
sS'passport'
p62
I1
sS'Bookshelf'
p63
I1
sS'foundationlegacymain'
p64
I1
sS'Tip'
p65
I1
sS'Rule'
p66
I1
sS'O\xe2\x80\x99Malley'
p67
I1
sS'Chronicles'
p68
I1
sS'nythpParisMegaBanner'
p69
I1
sS'92'
p70
I1
sS'97'
p71
I1
sS'must'
p72
I1
sS'h4sectionHeaderHome'
p73
I2
sS'avisited'
p74
I3
sS'Professors'
p75
I2
sS'Header'
p76
I1
sS'nythpTGLeft'
p77
I1
sS'Advertisers'
p78
I1
sS'A81817'
p79
I2
sS'h2storyheading'
p80
I1
sS'Poem'
p81
I1
sS'Le'
p82
I1
sS'555'
p83
I1
sS'LEARN'
p84
I1
sS'Brian'
p85
I1
sS'Bruni'
p86
I4
sS'Digital'
p87
I3
sS'realEstateSearch'
p88
I1
sS'end'
p89
I1
sS'\xe2\x80\x98Letters'
p90
I1
sS'Killing'
p91
I3
sS'how'
p92
I1
sS'Muslims'
p93
I1
sS'nytfranklinArialsansserif'
p94
I1
sS'SixTerm'
p95
I1
sS'Weekend'
p96
I1
sS'PariscreditJeanPaul'
p97
I1
sS'A'
p98
I10
sS'earlier'
p99
I1
sS'Will'
p100
I1
sS'Players'
p101
I1
sS'Bonne'
p102
I2
sS'reassess'
p103
I1
sS'law'
p104
I1
sS'texttransform'
p105
I7
sS'purchase'
p106
I1
sS'All'
p107
I3
sS'flagcreditHilary'
p108
I1
sS'Lloyd'
p109
I1
sS'worst'
p110
I1
sS'Sexual'
p111
I2
sS'\xe2\x80\x98By'
p112
I1
sS'Toll'
p113
I1
sS'\xe2\x80\x98Men'
p114
I1
sS'before'
p115
I1
sS'KATRIN'
p116
I1
sS'His'
p117
I2
sS'400'
p118
I4
sS'videoFactory'
p119
I1
sS'hidden'
p120
I2
sS'Him'
p121
I1
sS'them'
p122
I1
sS'Mobile'
p123
I2
sS'Analysis'
p124
I1
sS'Marseille'
p125
I2
sS'tentifrcallenreturn'
p126
I1
sS'Carillon160in'
p127
I1
sS'Depiction'
p128
I2
sS'Check'
p129
I1
sS'\xe2\x80\x98American'
p130
I1
sS'13px'
p131
I3
sS'Douthat'
p132
I1
sS'message'
p133
I2
sS'Styles'
p134
I2
sS'BEGIN'
p135
I1
sS'Wary'
p136
I1
sS'\xe2\x80\x98Into'
p137
I1
sS'DelayAssociated'
p138
I1
sS'authgrowl'
p139
I1
sS'foundation'
p140
I1
sS'Cuban'
p141
I2
sS'Join'
p142
I1
sS'nythpElection2016Header'
p143
I12
sS'Work'
p144
I1
sS'Metal'
p145
I1
sS'free'
p146
I1
sS'standard'
p147
I1
sS'struggle'
p148
I1
sS'Clinton'
p149
I5
sS'Contributors'
p150
I1
sS'Movies'
p151
I2
sS'Photo'
p152
I1
sS'National'
p153
I2
sS'TimesimagecropslargeWidescreen573height322width573urlhttpstatic01nytcomimages20151115worldeurope20151115parishpslideYZLW20151115parishpslideYZLWlargeWidescreen573jpgurlslideshow20151115worldeuropeattacksincentralpariss20151115parishpslideYZLWhtmlshorturlhttpnytims1kwR18oapprovedforsyndicationtruedataid100000004038153slideurl20151115parishpslideKO3AimagetypephotocaptionfullFelix'
p154
I1
sS'nythpParisMega1stCol'
p155
I1
sS'Uprising'
p156
I1
sS'0667'
p157
I1
sS'Universities'
p158
I1
sS'windowmagnumwriteLogosmall'
p159
I1
sS'Palestinian'
p160
I1
sS'Please'
p161
I2
sS'comforted'
p162
I2
sS'storythemefeaturepromo'
p163
I3
sS'Going'
p164
I1
sS'Tests'
p165
I1
sS'googletaggoogletaggoogletagcmdgoogletagcmdfunctionvar'
p166
I1
sS'top'
p167
I3
sS'Volkswagen'
p168
I1
sS'0066'
p169
I1
sS'0067'
p170
I1
sS'0064'
p171
I1
sS'rates'
p172
I1
sS'0063'
p173
I1
sS'0061'
p174
I1
sS'0069'
p175
I1
sS'Search'
p176
I4
sS'B'
p177
I3
sS'staticPath'
p178
I2
sS'TearStreaked'
p179
I1
sS'Neediest'
p180
I1
sS'Code'
p181
I2
sS'ireturnnew'
p182
I1
sS'Cyber'
p183
I1
sS'Sex'
p184
I1
sS'oet1nreturn'
p185
I1
sS'httpstatic01nytcomvideovhsbuildvhs2xmin'
p186
I1
sS'Adele'
p187
I1
sS'Sea'
p188
I1
sS'10th'
p189
I2
sS'realestate'
p190
I1
sS'messagebed'
p191
I1
sS'E2E2E2'
p192
I1
sS'raw'
p193
I1
sS'tevar'
p194
I1
sS'rap'
p195
I1
sS'Transgender'
p196
I1
sS'responsible'
p197
I1
sS'Band'
p198
I1
sS'They'
p199
I1
sS'Ask'
p200
I1
sS'Gallery'
p201
I2
sS'Reports'
p202
I1
sS'ImagesimagecropslargeWidescreen573height322width573urlhttpstatic01nytcomimages20151115worldeurope20151115parishpslideX9ZT20151115parishpslideX9ZTlargeWidescreen573v2jpgurlslideshow20151115worldeuropeattacksincentralpariss20151115parishpslideX9ZThtmlshorturlhttpnytims1kwoEarapprovedforsyndicationtruedataid100000004037725slideurl20151115parishpslideWQ01imagetypephotocaptionfullA'
p203
I1
sS'Alabama'
p204
I3
sS'aenfececoncatnfunction'
p205
I1
sS'Bernie'
p206
I1
sS'Exploitation'
p207
I3
sS'flow'
p208
I1
sS'Scene'
p209
I1
sS'PariscreditJerome'
p210
I1
sS'Single'
p211
I1
sS'Election'
p212
I2
sS'Sea\xe2\x80\x99'
p213
I1
sS'Its'
p214
I1
sS'came'
p215
I2
sS'bomb'
p216
I1
sS'Helvetica'
p217
I1
sS'colors'
p218
I2
sS'lethal'
p219
I1
sS'Anne'
p220
I1
sS'copy'
p221
I1
sS'nythpHideKickers'
p222
I1
sS'Stance'
p223
I1
sS'headline'
p224
I1
sS'Stravinsky'
p225
I1
sS'Republicans'
p226
I1
sS'11115'
p227
I1
sS'Free'
p228
I2
sS'R233publiqueshortParisians'
p229
I1
sS'Aspirations'
p230
I1
sS'adequate'
p231
I1
sS'do'
p232
I2
sS'Account'
p233
I2
sS'Turns'
p234
I1
sS'de'
p235
I6
sS'minlimit4maxlimit11'
p236
I1
sS'Leave'
p237
I1
sS'15'
p238
I1
sS'tribute'
p239
I2
sS'Over'
p240
I2
sS'Washington'
p241
I3
sS'textdecoration'
p242
I5
sS'Rivals'
p243
I3
sS'result'
p244
I1
sS'said'
p245
I2
sS'05'
p246
I5
sS'nythpCookingHeader'
p247
I37
sS'Rise'
p248
I1
sS'actionlink'
p249
I1
sS'RamosGetty'
p250
I1
sS'Water'
p251
I2
sS'nythpSplitCode'
p252
I12
sS'PelissierReutersimagecropslargeWidescreen573height322width573urlhttpstatic01nytcomimages20151115worldeurope20151115parishpslideX6R320151115parishpslideX6R3largeWidescreen573jpgurlslideshow20151115worldeuropeattacksincentralpariss20151115parishpslideX6R3htmlshorturlhttpnytims1kwzLAjapprovedforsyndicationtruedataid100000004038172slideurl20151115parishpslide1OOFimagetypephotocaptionfullA'
p253
I1
sS'aactive'
p254
I6
sS'Central'
p255
I1
sS'Settings'
p256
I1
sS'Borrowing'
p257
I1
sS'paddingtop'
p258
I4
sS'OpEd'
p259
I3
sS'providing'
p260
I1
sS'Dance'
p261
I1
sS'Focus'
p262
I1
sS'against'
p263
I1
sS'Dawn'
p264
I1
sS'Classifieds'
p265
I1
sS'Syrian'
p266
I1
sS'nonMuslims'
p267
I1
sS'2nd'
p268
I1
sS'articledatacollectionrenderstyleLedeSumstorythemesummary'
p269
I1
sS'Ireland'
p270
I1
sS'trust'
p271
I1
sS'nythpBreakingnythpNoRule'
p272
I1
sS'Gives'
p273
I1
sS'wideB'
p274
I2
sS'wideA'
p275
I2
sS'three'
p276
I2
sS'Cheaper'
p277
I1
sS'Hillary'
p278
I4
sS'stadium'
p279
I1
sS'dozens'
p280
I1
sS'Articles'
p281
I2
sS'Ajhar'
p282
I1
sS'Georgia'
p283
I1
sS'families'
p284
I1
sS'Night'
p285
I1
sS'Claims'
p286
I1
sS'Bites'
p287
I1
sS'Upper'
p288
I1
sS'Manage'
p289
I1
sS'Law'
p290
I2
sS'near'
p291
I1
sS'Accused'
p292
I3
sS'flagshortWashington'
p293
I1
sS'Menu'
p294
I1
sS'sticker'
p295
I1
sS'Vacation'
p296
I1
sS'Here\xe2\x80\x99s'
p297
I1
sS'Last'
p298
I2
sS'Tell'
p299
I1
sS'apparently'
p300
I1
sS'Socially'
p301
I1
sS'President'
p302
I1
sS'Taking'
p303
I1
sS'BREEDEN'
p304
I1
sS'Room'
p305
I1
sS'Poet\xe2\x80\x99s'
p306
I1
sS'h6active'
p307
I4
sS'hand'
p308
I1
sS'Home'
p309
I5
sS'Bridge\xe2\x80\x99'
p310
I1
sS'Patron'
p311
I1
sS'spanablayout'
p312
I2
sS'Table'
p313
I2
sS'left'
p314
I9
sS'spurred'
p315
I1
sS'pocketRegion'
p316
I4
sS'Pinkel'
p317
I1
sS'paddingright'
p318
I1
sS'previous'
p319
I2
sS'poses'
p320
I1
sS'tentreturn'
p321
I1
sS'News'
p322
I6
sS'3px'
p323
I5
sS'Restaurant'
p324
I1
sS'James'
p325
I1
sS'BAKER'
p326
I1
sS'siteindexbrandinglink'
p327
I1
sS'Roberts'
p328
I1
sS'objective'
p329
I1
sS'oamarkdomContentifunction'
p330
I1
sS'background'
p331
I10
sS'Missouri'
p332
I3
sS'unique'
p333
I1
sS'mediaphotomediumthumb'
p334
I4
sS'dreams'
p335
I1
sS'Wine'
p336
I1
sS'Art'
p337
I2
sS'Newsletters'
p338
I1
sS'MILAN'
p339
I1
sS'21px'
p340
I5
sS'Are'
p341
I3
sS'night'
p342
I1
sS'anythpBriefingNewsletterSignup'
p343
I1
sS'Species'
p344
I1
sS'Witness'
p345
I1
sS'sectionopinion'
p346
I2
sS'right'
p347
I2
sS'people'
p348
I1
sS'Conservation'
p349
I2
sS'PaperVideo'
p350
I1
sS'to160pay'
p351
I1
sS'Poker'
p352
I1
sS'bottom'
p353
I1
sS'h3containsHoliday'
p354
I1
sS'Getting'
p355
I3
sS'dataoptionswidth190height126jsonphttpjson8nytimescomslideshow20151115uspoliticsdemocraticcandidatesdebateslideshowjsonplinkhttpwwwnytimescom20151115uspoliticsdemocraticdebatecbshtmlphotosphotourlcreditadvanceddelay3limitjsonp0renditionmediumFlexible177targetoverrideabbreviatecreditstrue'
p356
I1
sS'backgroundposition'
p357
I2
sS'Gifts'
p358
I1
sS'everything'
p359
I2
sS'Facebook'
p360
I1
sS'provoking'
p361
I1
sS'Blogs'
p362
I1
sS'He'
p363
I1
sS'bold'
p364
I1
sS'ParisshortPainting'
p365
I1
sS'Place'
p366
I7
sS'AURELIEN'
p367
I1
sS'0px'
p368
I14
sS'Think'
p369
I1
sS'First'
p370
I2
sS'ltie10'
p371
I9
sS'attacks'
p372
I3
sS'Dyson'
p373
I1
sS'months'
p374
I1
sS'Valentine'
p375
I1
sS'undocumented'
p376
I1
sS'dinner'
p377
I1
sS'GALANES'
p378
I1
sS'Make'
p379
I7
sS'float'
p380
I7
sS'Few'
p381
I1
sS'Draft'
p382
I1
sS'raises'
p383
I1
sS'Survive'
p384
I2
sS'ImagesimagecropslargeWidescreen573height322width573urlhttpstatic01nytcomimages20151115worldeurope20151115parishpslideTANH20151115parishpslideTANHlargeWidescreen573jpgurlslideshow20151115worldeuropeattacksincentralpariss20151115parishpslideTANHhtmlshorturlhttpnytims1OKSZhXapprovedforsyndicationtruerelatedassets'
p385
I1
sS'MICHELLE'
p386
I1
sS'Extended'
p387
I2
sS'ISIS'
p388
I11
sS'Illustration'
p389
I1
sS'width'
p390
I4
sS'Column'
p391
I3
sS'Roast'
p392
I1
sS'Defeat'
p393
I3
sS'true'
p394
I1
sS'Interactive'
p395
I1
sS'outside160Le'
p396
I1
sS'tell'
p397
I1
sS'County'
p398
I1
sS'themenewsheadlinesnythpMiniThumbs'
p399
I1
sS'Much'
p400
I1
sS'tnvar'
p401
I1
sS'20px'
p402
I5
sS'Crust'
p403
I1
sS'libefore'
p404
I2
sS'Squares'
p405
I1
sS'ROBERT'
p406
I1
sS'when'
p407
I2
sS'Possible'
p408
I2
sS'14px'
p409
I3
sS'digital'
p410
I1
sS'Pages'
p411
I1
sS'Shift'
p412
I3
sS'GuiltFree'
p413
I1
sS'Hunt'
p414
I1
sS'backgroundsize'
p415
I1
sS'urlhttpgraphics8nytimescompackagesimageshomepagethanksgiving2015thanksgivingrulepng'
p416
I1
sS'Estate'
p417
I4
sS'Win'
p418
I1
sS'Driverless'
p419
I1
sS'American'
p420
I1
sS'Second'
p421
I2
sS'Wit'
p422
I1
sS'Familiar'
p423
I1
sS'Roger'
p424
I3
sS'global'
p425
I1
sS'Cadillac\xe2\x80\x99s'
p426
I1
sS'creative'
p427
I1
sS'killings'
p428
I1
sS'editors'
p429
I1
sS'0'
p430
I25
sS'\xe2\x80\x98Did'
p431
I1
sS'Day'
p432
I5
sS'Rousey'
p433
I1
sS'VICTORIA'
p434
I1
sS'Tech'
p435
I3
sS'Where'
p436
I1
sS'Song\xe2\x80\x99'
p437
I1
sS'ahover'
p438
I6
sS'tablerow'
p439
I1
sS'Global'
p440
I1
sS'Tax'
p441
I2
sS'div'
p442
I2
sS'Debate'
p443
I5
sS'Slowly'
p444
I1
sS'Finding'
p445
I1
sS'a81817'
p446
I1
sS'bake'
p447
I1
sS'\xe2\x80\x98First'
p448
I1
sS'Steely'
p449
I1
sS'inlineblock'
p450
I7
sS'Subscriptions'
p451
I5
sS'Bruce'
p452
I1
sS'Public'
p453
I2
sS'shared'
p454
I1
sS'Along'
p455
I1
sS'explosion'
p456
I1
sS'groups'
p457
I1
sS'Mr'
p458
I1
sS'margintop'
p459
I7
sS'Times'
p460
I13
sS'My'
p461
I3
sS'topnews'
p462
I5
sS'MM'
p463
I1
sS'BAB8B3'
p464
I1
sS'Your'
p465
I3
sS'navigation'
p466
I2
sS'emerge'
p467
I1
sS'When'
p468
I1
sS'Enough'
p469
I4
sS'nythpTGRight'
p470
I2
sS'TimesimagecropslargeWidescreen573height322width573urlhttpstatic01nytcomimages20151115worldeurope20151115parishpslideO08Y20151115parishpslideO08YlargeWidescreen573jpgurlslideshow20151115worldeuropeattacksincentralpariss20151115parishpslideO08Yhtmlshorturlhttpnytims1kW5nyRapprovedforsyndicationtruedataid100000004038264slideurl20151115parishpslideI7S9imagetypephotocaptionfullA'
p471
I1
sS'0875'
p472
I1
sS'nrrequirereturn'
p473
I1
sS'Sanders'
p474
I1
sS'Lanes'
p475
I1
sS'prove'
p476
I1
sS'Dies'
p477
I3
sS'Deaton'
p478
I1
sS'helvetica'
p479
I3
sS'only'
p480
I1
sS'Fell'
p481
I1
sS'October'
p482
I1
sS'Mom'
p483
I1
sS'restaurantshortA'
p484
I1
sS'Rituals'
p485
I1
sS'FD8249'
p486
I2
sS'Horror'
p487
I2
sS'migrants'
p488
I1
sS'timesvideo'
p489
I1
sS'alinknythpBriefingNewsletterSignup'
p490
I1
sS'cap'
p491
I1
sS'Lebanon'
p492
I1
sS'Pacific'
p493
I1
sS'commentspanel'
p494
I1
sS'urlhttpgraphics8nytimescompackagesimageshomepagebriefingsdogearsmpng'
p495
I1
sS'Our'
p496
I3
sS'Out'
p497
I3
sS'Media'
p498
I2
sS'Drivers'
p499
I1
sS'\xe2\x80\x98Secret'
p500
I1
sS'1980s'
p501
I1
sS'ureturn'
p502
I1
sS'PariscreditDmitry'
p503
I2
sS'Issue'
p504
I1
sS'editiondomestic'
p505
I1
sS'Terms'
p506
I2
sS'Who'
p507
I1
sS'1'
p508
I15
sS'Why'
p509
I2
sS'information'
p510
I2
sS'may'
p511
I1
sS'Bi232re'
p512
I1
sS'ANDREW'
p513
I1
sS'alerticon'
p514
I1
sS'applications'
p515
I11
sS'R233publique160in'
p516
I2
sS'shuffleRecommendations'
p517
I1
sS'Editorials'
p518
I1
sS'Corporate'
p519
I2
sS'View'
p520
I3
sS'PariscreditMartin'
p521
I1
sS'candles'
p522
I6
sS'truck'
p523
I1
sS'Bader'
p524
I2
sS'httpstatic01nytcomjs2buildvideoplayersextended20appRequire'
p525
I1
sS'Breaking'
p526
I2
sS'years'
p527
I1
sS'nbsp'
p528
I1
sS'police'
p529
I1
sS'Cruz\xe2\x80\x99s'
p530
I3
sS'window'
p531
I3
sS'\xe2\x80\x98Sanctuary'
p532
I1
sS'policy'
p533
I1
sS'coordinated'
p534
I1
sS'Hiding'
p535
I1
sS'3'
p536
I2
sS'Choices'
p537
I1
sS'odocumentgetElementsByTagNamescript0oparentNodeinsertBeforeto'
p538
I1
sS'hall'
p539
I1
sS'name'
p540
I1
sS'Insider'
p541
I3
sS'opera'
p542
I1
sS'Skip'
p543
I2
sS'Tougher'
p544
I1
sS'Heels'
p545
I1
sS'thttpsssplit0esslForHttpdprotothttpshttpamarkonloadivar'
p546
I1
sS'em'
p547
I1
sS'Move'
p548
I1
sS'paddingleft'
p549
I4
sS'candidates\xe2\x80\x99'
p550
I1
sS'remembrance'
p551
I2
sS'Split'
p552
I1
sS'Routine'
p553
I1
sS'Save'
p554
I3
sS'Carolina'
p555
I2
sS'Roper'
p556
I1
sS'themenewsheadlines'
p557
I2
sS'liveupdatesflextypepromo'
p558
I1
sS'Joy'
p559
I1
sS'Tragedy'
p560
I1
sS'avisitednythpBriefingNewsletterSignup'
p561
I1
sS'restaurantcreditDavid'
p562
I1
sS'50px'
p563
I2
sS'END'
p564
I1
sS'Rights'
p565
I1
sS'siege'
p566
I1
sS'Deductibles'
p567
I2
sS'Security'
p568
I1
sS'Options'
p569
I1
sS'httpstatic01nytcomjsmtr'
p570
I1
sS'toi0foro'
p571
I1
sS'flexData'
p572
I2
sS'Suicide'
p573
I1
sS'revenue'
p574
I1
sS'Asia'
p575
I1
sS'one'
p576
I2
sS'Attackers'
p577
I1
sS'Rates'
p578
I1
sS'Hollywood'
p579
I2
sS'city'
p580
I1
sS'properties'
p581
I2
sS'Gains'
p582
I1
sS'Kristof'
p583
I1
sS'nythpGiftguide'
p584
I8
sS'tragic'
p585
I1
sS'Response'
p586
I2
sS'bloodshed'
p587
I1
sS'Neck'
p588
I1
sS'rehandleoe1ie2undefinedtypeof'
p589
I1
sS'ObjectdefinePropertyenvalueowritable0enumerable1ocatchireturn'
p590
I1
sS'padding'
p591
I12
sS'bColumn'
p592
I2
sS'textindent'
p593
I1
sS'Knocked'
p594
I1
sS'flowers'
p595
I2
sS'11'
p596
I1
sS'10'
p597
I6
sS'Love'
p598
I2
sS'16'
p599
I1
sS'require'
p600
I3
sS'were'
p601
I3
sS'Advertise'
p602
I1
sS'Chance\xe2\x80\x99'
p603
I1
sS'browser'
p604
I1
sS'ImagesimagecropslargeWidescreen573height322width573urlhttpstatic01nytcomimages20151115worldeurope20151115parishpslideWQ0120151115parishpslideWQ01largeWidescreen573v2jpgurlslideshow20151115worldeuropeattacksincentralpariss20151115parishpslideWQ01htmlshorturlhttpnytims1kwdcM4approvedforsyndicationtruedataid100000004038022slideurl20151115parishpslideTANHimagetypephotocaptionfullParisians'
p605
I1
sS'Sickness'
p606
I1
sS'America\xe2\x80\x99'
p607
I1
sS'Martial'
p608
I1
sS'Do'
p609
I2
sS'storythemesummary'
p610
I3
sS'Women\xe2\x80\x99s'
p611
I1
sS'Famous'
p612
I1
sS'DategetTimevar'
p613
I1
sS'15px'
p614
I2
sS'Hall'
p615
I1
sS'Worldwide'
p616
I1
sS'sure'
p617
I1
sS'normal'
p618
I2
sS'Aqsa'
p619
I1
sS'TimesimagecropslargeWidescreen573height322width573urlhttpstatic01nytcomimages20151115worldeurope20151115parishpslideN61S20151115parishpslideN61SlargeWidescreen573jpgurlslideshow20151115worldeuropeattacksincentralpariss20151115parishpslideN61Shtmlshorturlhttpnytims1OLhsE7approvedforsyndicationtruedataid100000004038265slideurl20151115parishpslideVC5PimagetypephotocaptionfullA'
p620
I1
sS'Loading'
p621
I3
sS'Resigning'
p622
I1
sS'remarks'
p623
I1
sS'Lands'
p624
I2
sS'raquo'
p625
I34
sS'tteelength0forvar'
p626
I1
sS'Strip'
p627
I1
sS'spanABTopRegion'
p628
I2
sS'\xe2\x80\x98Attack'
p629
I1
sS'Role'
p630
I2
sS'Smile'
p631
I1
sS'40px'
p632
I1
sS'We'
p633
I2
sS'upgrade'
p634
I1
sS'gulf'
p635
I1
sS'WAR\xe2\x80\x99'
p636
I1
sS'05625rem'
p637
I1
sS'075rem'
p638
I1
sS'Diary'
p639
I1
sS'Solar'
p640
I1
sS'Services'
p641
I1
sS'blinds'
p642
I1
sS'Carnage'
p643
I1
sS'get'
p644
I2
sS'Louis'
p645
I1
sS'Magazine'
p646
I7
sS'Muscle'
p647
I1
sS'Having'
p648
I1
sS'nytcheltenhamshgeorgiatimes'
p649
I3
sS'Tabary'
p650
I1
sS'summary'
p651
I3
sS'jokes'
p652
I1
sS'Anger'
p653
I1
sS'Education'
p654
I4
sS'concert'
p655
I1
sS'tallWatchingModule'
p656
I1
sS'BENNHOLD'
p657
I1
sS'relative'
p658
I1
sS'arialhelveticasansserif'
p659
I1
sS'romantimesserif'
p660
I7
sS'nytkarnakdisplay130124'
p661
I2
sS'concern'
p662
I1
sS'Ansari'
p663
I2
sS'outside'
p664
I1
sS'letterspacing'
p665
I3
sS'between'
p666
I1
sS'editioninternational'
p667
I1
sS'requirehttpstatic01nytcombijstagxtagxjs'
p668
I1
sS'FOR'
p669
I1
sS'tablecell'
p670
I1
sS'arial'
p671
I3
sS'Give'
p672
I1
sS'many'
p673
I1
sS'windowNREUMNREUMNREUMinfobeaconbamnrdatanetlicenseKeyb5bcf2eba4applicationID4491446transactionNameYwFXZhRYVhAEVUZcX1pLYEAPFlkTFRhCXUAqueueTime0applicationTime593ttGuidagentTokenuserAttributeserrorBeaconbamnrdatanetagentjsagentnewreliccomnr686minjs'
p674
I1
sS'Escape'
p675
I1
sS'among'
p676
I1
sS'Death'
p677
I2
sS'Friday\xe2\x80\x99s'
p678
I1
sS'color'
p679
I12
sS'Travel'
p680
I4
sS'IBM\xe2\x80\x99s'
p681
I3
sS'Note'
p682
I1
sS'nythpBriefings'
p683
I2
sS'article'
p684
I7
sS'storyheading'
p685
I4
sS'Events'
p686
I3
sS'177px'
p687
I1
sS'turkey'
p688
I1
sS'Urge'
p689
I2
sS'Pain'
p690
I1
sS'homepage20151113101625jshomepage'
p691
I2
sS'id'
p692
I4
sS'But'
p693
I1
sS'47px'
p694
I1
sS'skyhigh'
p695
I1
sS'Promos'
p696
I1
sS'Known'
p697
I1
sS'Bittman'
p698
I2
sS'500'
p699
I1
sS'ercalleotinoeoi1return'
p700
I1
sS'639'
p701
I1
sS'MARTIN'
p702
I1
sS'Points'
p703
I1
sS'Path'
p704
I1
sS'WAS'
p705
I1
sS'Round'
p706
I1
sS'Storm\xe2\x80\x99'
p707
I1
sS'Divide'
p708
I1
sS'UFC'
p709
I1
sS'margin'
p710
I4
sS'Tennis'
p711
I2
sS'TEAMS'
p712
I1
sS'Useless'
p713
I2
sS'Bar'
p714
I1
sS'Saks'
p715
I1
sS'Merchandising'
p716
I1
sS'pay'
p717
I1
sS'JONATHAN'
p718
I1
sS'NYTDNYTD'
p719
I2
sS'events'
p720
I1
sS'Live\xe2\x80\x99'
p721
I1
sS'HYPERLINK'
p722
I1
sS'I'
p723
I2
sS'Clear'
p724
I1
sS'collectionfirstchild'
p725
I2
sS'allocation'
p726
I11
sS'Says'
p727
I1
sS'Is'
p728
I6
sS'2015Today\xe2\x80\x99s'
p729
I1
sS'It'
p730
I1
sS'TV'
p731
I2
sS'without'
p732
I1
sS'Rent'
p733
I1
sS'In'
p734
I5
sS'ccc'
p735
I3
sS'United'
p736
I1
sS'Service'
p737
I1
sS'displaynone'
p738
I3
sS'captures'
p739
I1
sS'rest'
p740
I1
sS'Caf233'
p741
I1
sS'imagefirstchild'
p742
I1
sS'coloredSharetools'
p743
I1
sS'captured'
p744
I1
sS'Log'
p745
I1
sS'Jobs'
p746
I1
sS'Spot'
p747
I1
sS'Applications'
p748
I1
sS'Getty'
p749
I1
sS'ccolumn'
p750
I6
sS'NEIL'
p751
I1
sS'Jersey'
p752
I1
sS'Many'
p753
I2
sS'traffic'
p754
I1
sS'nytfranklin'
p755
I4
sS'Show'
p756
I1
sS'Pie'
p757
I1
sS'Hacks'
p758
I1
sS'Raises'
p759
I2
sS'Gunmen'
p760
I1
sS'\xe4\xb8\xad\xe6\x96\x87'
p761
I1
sS'\xe2\x80\x98A'
p762
I1
sS'windowlocationsearchindexOfdisabletagx'
p763
I1
sS'uppercase'
p764
I7
sS'ereturneobjectnfunctionn1ewindow0ieofunctionreturn'
p765
I1
sS'Mark'
p766
I2
sS'Clinton\xe2\x80\x99s'
p767
I2
sS'Mars'
p768
I1
sS'Terror'
p769
I6
sS'International'
p770
I2
sS'pinnedMasthead'
p771
I1
sS'Men'
p772
I1
sS'recorded'
p773
I1
sS'ATTACK'
p774
I1
sS'timetimestamp'
p775
I1
sS'ontexportset0calloexportsfunctionnvar'
p776
I1
sS'TimesimagecropslargeWidescreen573height322width573urlhttpstatic01nytcomimages20151115worldeurope20151115parishpslideVC5P20151115parishpslideVC5PlargeWidescreen573jpgurlslideshow20151115worldeuropeattacksincentralpariss20151115parishpslideVC5Phtmlshorturlhttpnytims1kW5pXoapprovedforsyndicationtruedataid100000004038267slideurl20151115parishpslideO08YimagetypephotocaptionfullWashington'
p777
I1
sS'Nabokov'
p778
I2
sS'refer'
p779
I3
sS'Cellphone'
p780
I1
sS'AM'
p781
I4
sS'slaughter'
p782
I1
sS'Technophoria'
p783
I2
sS'Vietnam'
p784
I2
sS'Druckerman'
p785
I1
sS'Revolution'
p786
I3
sS'Beauty'
p787
I1
sS'Paper'
p788
I1
sS'Wintry'
p789
I1
sS'Story'
p790
I3
sS'image'
p791
I1
sS'Least'
p792
I1
sS'Immigration'
p793
I1
sS'Acting'
p794
I2
sS'your'
p795
I2
sS'Store'
p796
I1
sS'Week'
p797
I1
sS'MillsThe'
p798
I2
sS'paidPostDriver'
p799
I1
sS'prepare'
p800
I1
sS'hed'
p801
I1
sS'NY'
p802
I4
sS'italic'
p803
I1
sS'Arch'
p804
I2
sS'Obama'
p805
I1
sS'attackscontentkickersectionnameworldsubsectionnameeuropepublicationdate1447563600id100000004037403imageslideshowintroslidesdataid100000004038268slideurl20151115parishpslideN61SimagetypephotocaptionfullPeople'
p806
I1
sS'Stopped'
p807
I1
sS'Small'
p808
I1
sS'scatological'
p809
I1
sS'Guide'
p810
I4
sS'longer'
p811
I1
sS'Heavy'
p812
I1
sS'Sinjar'
p813
I1
sS'Alterations'
p814
I1
sS'vhs'
p815
I1
sS'Close'
p816
I1
sS'Hebdo'
p817
I1
sS'Crisis'
p818
I1
sS'aehandlece1uwindowfudocumente2var'
p819
I1
sS'videos'
p820
I1
sS'taste'
p821
I1
sS'Wordplay'
p822
I1
sS'an'
p823
I3
sS'How'
p824
I9
sS'Real'
p825
I4
sS'Attacker\xe2\x80\x99s'
p826
I1
sS'1215'
p827
I1
sS'Reflect'
p828
I1
sS'5'
p829
I5
sS'you'
p830
I4
sS'PETER'
p831
I1
sS'Kurdish'
p832
I1
sS'Vladimir'
p833
I2
sS'videoPlaylist'
p834
I1
sS'important'
p835
I6
sS'coverage'
p836
I1
sS'included'
p837
I1
sS'wfloading'
p838
I2
sS'Myanmar'
p839
I1
sS'Modern'
p840
I1
sS'untidy'
p841
I1
sS'Critic'
p842
I1
sS'storythemefeaturepromofirstchildbordertopnone'
p843
I1
sS'onrcontextiegosnexportstgos7eSDFheefunctionennexportseQJf3ax3functionenfunction'
p844
I1
sS'all'
p845
I2
sS'caused'
p846
I1
sS'Fix'
p847
I1
sS'content'
p848
I1
sS'icons'
p849
I1
sS'homepage'
p850
I6
sS'longtime'
p851
I1
sS'backgroundcolor'
p852
I1
sS'woman'
p853
I4
sS'4em'
p854
I1
sS'Angus'
p855
I1
sS'Listings'
p856
I2
sS'Sale'
p857
I4
sS'Headers'
p858
I1
sS'1px'
p859
I11
sS'slocationsplit0pbeaconbamnrdataneterrorBeaconbamnrdatanetagentjsagentnewreliccomnr686minjsdnexportsoffsetioriginsfeaturesfaddEventListenerfaddEventListenerDOMContentLoadedo1uaddEventListenerloadt1fattachEventonreadystatechangeruattachEventonloadtamarkfirstbytei11223handleD5DuLPloaderfunctionennexportseG9z0Bl12functionenfunction'
p860
I1
sS'\xe2\x80\x98ACT'
p861
I1
sS'marginright'
p862
I2
sS'flexDatainteractive'
p863
I1
sS'Soldiers'
p864
I2
sS'Chase'
p865
I1
sS'messengersuggestions'
p866
I5
sS'Selves'
p867
I1
sS'BureauAgence'
p868
I1
sS'Only'
p869
I1
sS'Word'
p870
I2
sS'East'
p871
I2
sS'ribbon'
p872
I1
sS'rfcreateElementscriptrsrcdprotoeagentnparentNodeinsertBeforernfunction'
p873
I1
sS'what'
p874
I1
sS'consumers'
p875
I1
sS'crust'
p876
I1
sS'crush'
p877
I1
sS'rvar'
p878
I1
sS'rlistenerselengthremitentvoidrqrqerqerqepushnvar'
p879
I1
sS'paddingbottom'
p880
I2
sS'Gift'
p881
I3
sS'Charlie'
p882
I1
sS'Contact'
p883
I1
sS'Briefing'
p884
I1
sS'search'
p885
I2
sS'ArtsBeat'
p886
I1
sS'Bullies'
p887
I1
sS'action'
p888
I1
sS'Style'
p889
I6
sS'nytcheltenhamgeorgiatimes'
p890
I3
sS'nythpDeveloping'
p891
I1
sS'Top'
p892
I2
sS'Too'
p893
I2
sS'Opinion'
p894
I8
sS'Kurds'
p895
I3
sS'Europe'
p896
I1
sS'Explorer'
p897
I2
sS'attackers'
p898
I1
sS'Cities\xe2\x80\x99'
p899
I1
sS'Automobiles'
p900
I2
sS'Lives'
p901
I1
sS'textalign'
p902
I8
sS'underprivileged'
p903
I1
sS'Cooking'
p904
I1
sS'erode'
p905
I1
sS'St'
p906
I1
sS'admissions'
p907
I1
sS'flag'
p908
I1
sS'Mass'
p909
I2
sS'none'
p910
I27
sS'include'
p911
I1
sS'Followed'
p912
I1
sS'SelfDefense'
p913
I1
sS'bordertop'
p914
I5
sS'326891'
p915
I1
sS'tentnn0undefinedtypeof'
p916
I1
sS'Chimps'
p917
I1
sS'Cause'
p918
I1
sS'spanabcregion'
p919
I2
sS'needs'
p920
I1
sS'TimesimagecropslargeWidescreen573height322width573urlhttpstatic01nytcomimages20151115worldeurope20151115parishpslideKO3A20151115parishpslideKO3AlargeWidescreen573jpgurlslideshow20151115worldeuropeattacksincentralpariss20151115parishpslideKO3Ahtmlshorturlhttpnytims1YbhHtsapprovedforsyndicationtruedataid100000004037813slideurl20151115parishpslideX9ZTimagetypephotocaptionfullPainting'
p921
I1
sS'urlhttpgraphics8nytimescompackagesimageshomepagenewslettericonpng'
p922
I1
sS'Unending'
p923
I1
sS'UPDATEShomepageFeedfalseinteractivefalsemaxitems5'
p924
I2
sS'Meaning'
p925
I1
sS'Ebola'
p926
I1
sS'Television'
p927
I2
sS'plans'
p928
I1
sS'Foreign'
p929
I1
sS'Matter'
p930
I1
sS'terrorist'
p931
I1
sS'lighting'
p932
I2
sS'coming'
p933
I2
sS'response'
p934
I1
sS'Really'
p935
I1
sS'ribbonChartbeatMostEmailed'
p936
I1
sS'tvar'
p937
I2
sS'Player'
p938
I1
sS'assailant'
p939
I1
sS'httpstatic01nytcomjs2buildvideo20videofactoryrequire'
p940
I1
sS'Bolster'
p941
I1
sS'What'
p942
I2
sS'Arial'
p943
I1
sS'help'
p944
I1
sS'ntypeof'
p945
I1
sS'Diamonds'
p946
I1
sS'bordertopcolor'
p947
I1
sS'ccolumncolumn'
p948
I2
sS'style'
p949
I1
sS'Full'
p950
I1
sS'20'
p951
I2
sS'bordernone'
p952
I1
sS'freturnonaemitncreateulistenersceventsffunction'
p953
I1
sS'GORDON'
p954
I1
sS'splitlayout'
p955
I7
sS'soccer'
p956
I1
sS'might'
p957
I1
sS'fines'
p958
I1
sS'waitSeconds'
p959
I1
sS'Evolution'
p960
I1
sS'return'
p961
I3
sS'timestamp'
p962
I2
sS'demographics'
p963
I1
sS'L'
p964
I1
sS'flexDataeventid'
p965
I1
sS'georgiatimes'
p966
I1
sS'Ban'
p967
I1
sS'Fight'
p968
I2
sS'document'
p969
I1
sS'referheading'
p970
I1
sS'spanABLedePackage'
p971
I2
sS'Reads'
p972
I1
sS'nythpSpanABCMiddleColumn'
p973
I1
sS'windowNREUMNREUMnrrequirefunctionentfunction'
p974
I1
sS'u2014'
p975
I1
sS'Sports'
p976
I5
sS'ATSV'
p977
I1
sS'Build'
p978
I1
sS'More'
p979
I6
sS'ADAM'
p980
I1
sS'7'
p981
I1
sS'Cook'
p982
I1
sS'paidPostFivePack'
p983
I1
sS'reeecreatenexportstteerrqeeQJf3axhandlefunctionennexportseD5DuLPXL7HBIfunctionenfunction'
p984
I1
sS'4px'
p985
I5
sS'Protect'
p986
I1
sS'Drama'
p987
I1
sS'ET'
p988
I4
sS'People'
p989
I1
sS'just'
p990
I1
sS'8YearOld'
p991
I3
sS'columnfirstchild'
p992
I4
sS'threat'
p993
I1
sS'rcompletefreadyStateofunction'
p994
I1
sS'Copyright'
p995
I1
sS'SCHWIRTZ'
p996
I1
sS'traveled'
p997
I1
sS'EmailedMost'
p998
I1
sS'Goes'
p999
I2
sS'Speaks'
p1000
I1
sS'story'
p1001
I4
sS'recommendedLabelTest'
p1002
I1
sS'least'
p1003
I1
sS'Disrupted'
p1004
I1
sS'StothardGetty'
p1005
I1
sS'Problem'
p1006
I1
sS'grace'
p1007
I1
sS'Road'
p1008
I1
sS'throttle'
p1009
I11
sS'Cancer'
p1010
I1
sS'Puzzle'
p1011
I2
sS'httpa1nytcomassetshomepage20151113101625imagesfoundationlogos'
p1012
I1
sS'DESCRIPTOR'
p1013
I1
sS'Layouts'
p1014
I1
sS'Extinction'
p1015
I1
sS'nythpBriefingNewsletterSignup'
p1016
I1
sS'Yazidis'
p1017
I1
sS'asetPageViewNameaddPageActionsetCustomAttributefinishedaddToTraceinlineHitnoticeErroroafunctionenwindowNREUMntapinnexportswindowNREUM112213handleD5DuLPgosfunctionennexportse7eSDFh7eSDFhfunctionenfunction'
p1018
I1
sS'Instamom'
p1019
I2
sS'paths'
p1020
I1
sS'Fleeting'
p1021
I1
sS'Ukrainian'
p1022
I1
sS'Food'
p1023
I6
sS'Confusion'
p1024
I1
sS'borderbottom'
p1025
I11
sS'lit'
p1026
I6
sS'With'
p1027
I6
sS'M\xc3\xa9nage'
p1028
I1
sS'Myself'
p1029
I1
sS'Episode'
p1030
I1
sS'Attacks'
p1031
I10
sS'reach'
p1032
I1
sS'Anybody'
p1033
I1
sS'Lafayette'
p1034
I4
sS'The'
p1035
I36
sS'NYTDFlexTypes'
p1036
I4
sS'Google'
p1037
I1
sS'clear'
p1038
I1
sS'tdocumentcreateElementscripttasync0ttypetextjavascriptvar'
p1039
I1
sS'Profit'
p1040
I1
sS'SCHMITT'
p1041
I1
sS'norepeat'
p1042
I5
sS'marginleft'
p1043
I12
sS'Hill'
p1044
I1
sS'font'
p1045
I1
sS'find'
p1046
I1
sS'Affordable'
p1047
I1
sS'22px'
p1048
I1
sS'documentreadyfunction'
p1049
I2
sS'French'
p1050
I4
sS'Todayrsquos'
p1051
I2
sS'r1otn0iArray0o0or'
p1052
I1
sS'his'
p1053
I1
sS'hit'
p1054
I1
sS'Wife'
p1055
I2
sS'nythpSplitCodelayout'
p1056
I4
sS'Favorite'
p1057
I1
sS'Thanksgiving'
p1058
I8
sS'Set'
p1059
I1
sS'Responsibility'
p1060
I1
sS'Outcry'
p1061
I1
sS'banner'
p1062
I1
sS'Saying'
p1063
I1
sS'Protests'
p1064
I1
sS'Help'
p1065
I1
sS'Inflicting'
p1066
I2
sS'Guides'
p1067
I2
sS'SAYS'
p1068
I1
sS'For'
p1069
I5
sS'573px'
p1070
I1
sS'France'
p1071
I4
sS'windowliveUpdatesFlextypeLoaded'
p1072
I2
sS'edinfoNREUMinfonfgetElementsByTagNamescript0ifeelicenseKeyeapplicationIDncpfunctionntn'
p1073
I1
sS'Derails'
p1074
I1
sS'Towers'
p1075
I1
sS'Park'
p1076
I6
sS'watchingbetaoptincontainer'
p1077
I3
sS'CeaseFire'
p1078
I1
sS'spanabtopregion'
p1079
I9
sS'DesignCentered'
p1080
I1
sS'V\xc3\xa9ra\xe2\x80\x99'
p1081
I1
sS'Bistro'
p1082
I1
sS'Could'
p1083
I1
sS'testId'
p1084
I11
sS'lineheight'
p1085
I11
sS'TimesimagecropslargeWidescreen573height322width573urlhttpstatic01nytcomimages20151115worldeurope20151115parishpslide1OOF20151115parishpslide1OOFlargeWidescreen573jpgurlslideshow20151115worldeuropeattacksincentralpariss20151115parishpslide1OOFhtmlshorturlhttpnytims1WSZMKYapprovedforsyndicationtruedataid100000004037727slideurl20151115parishpslideOP49imagetypephotocaptionfullA'
p1086
I1
sS'Chip'
p1087
I1
sS'Hard'
p1088
I1
sS'foreign'
p1089
I1
sS'Nobel'
p1090
I1
sS'unfolded'
p1091
I1
sS'Way'
p1092
I1
sS'War'
p1093
I3
sS'Biu00e8re'
p1094
I1
sS'Play'
p1095
I2
sS'Students'
p1096
I1
sS'Trail'
p1097
I2
sS'Train'
p1098
I1
sS'California'
p1099
I3
sS'Plan'
p1100
I2
sS'Care'
p1101
I1
sS'slideshow'
p1102
I1
sS'else'
p1103
I1
sS'h3kicker'
p1104
I2
sS'GuideparentaddClassnythpGiftguide'
p1105
I1
sS'Prompt'
p1106
I1
sS'towns'
p1107
I1
sS'16px'
p1108
I2
sS'Todays'
p1109
I3
sS'look'
p1110
I1
sS'Journeys'
p1111
I1
sS'solid'
p1112
I11
sS'Sales'
p1113
I1
sS'College'
p1114
I1
sS'Story\xe2\x80\x99'
p1115
I1
sS'City'
p1116
I2
sS'nytfranklinhelveticaarialsansserif'
p1117
I1
sS'Strategy'
p1118
I3
sS'Tim'
p1119
I1
sS'Eagles'
p1120
I1
sS'e2e2e2'
p1121
I1
sS'E33D26'
p1122
I1
sS'9'
p1123
I1
sS'fefunction'
p1124
I1
sS'FrancePresse'
p1125
I1
sS'day'
p1126
I1
sS'002'
p1127
I1
sS'000'
p1128
I10
sS'backgroundimage'
p1129
I2
sS'Parisians'
p1130
I1
sS'along'
p1131
I1
sS'Jolie'
p1132
I1
sS'Technology'
p1133
I1
sS'Ru00e9publiquecreditChristopher'
p1134
I1
sS'Rate'
p1135
I1
sS'Economic'
p1136
I1
sS'Tools'
p1137
I1
sS'T'
p1138
I4
sS'Living'
p1139
I1
sS'Internet'
p1140
I2
sS'Include'
p1141
I1
sS'LondoncreditRob'
p1142
I1
sS'input'
p1143
I1
sS'rObjectprototypehasOwnPropertynexportst13functionenfunction'
p1144
I1
sS'Robert'
p1145
I2
sS'On'
p1146
I3
sS'manage'
p1147
I1
sS'victims'
p1148
I3
sS'Faster'
p1149
I1
sS'nythpHideBylines'
p1150
I1
sS'Mascara'
p1151
I1
sS'Retracing'
p1152
I1
sS'PHILIP'
p1153
I1
sS'modifications'
p1154
I1
sS'd'
p1155
I1
sS'OF'
p1156
I2
sS'Cohen'
p1157
I3
sS'foundationmain'
p1158
I2
sS'Rising'
p1159
I1
sS'Columnists'
p1160
I1
sS'names'
p1161
I1
sS'velcroSocialFollow'
p1162
I1
sS'Candidates'
p1163
I2
sS'Fears'
p1164
I2
sS'homepage20151113101625jsshared'
p1165
I1
sS'Email'
p1166
I1
sS'Daypart'
p1167
I1
sS'Injured'
p1168
I1
sS'Frank'
p1169
I3
sS'AMC'
p1170
I1
sS'generations'
p1171
I1
sS'nythpBreaking'
p1172
I3
sS'AMY'
p1173
I1
sS'liveupdatesmodule'
p1174
I1
sS'elnupdateswidget7600elnsulsm'
p1175
I1
sS'Simpler'
p1176
I1
sS'David'
p1177
I2
sS'httpstatic01nytcomlivecoveragelive'
p1178
I1
sS'Russia'
p1179
I1
sS'Square'
p1180
I4
sS'deductibles'
p1181
I1
sS'graduation'
p1182
I1
sS'8px'
p1183
I5
sS'Distant'
p1184
I2
sS'SHANNON'
p1185
I1
sS'sponsored'
p1186
I1
sS'block'
p1187
I2
sS'NewsDeveloping'
p1188
I1
sS'Bears'
p1189
I1
sS'Unhappy'
p1190
I1
sS'Their'
p1191
I3
sS'Fran\xc3\xa7ois'
p1192
I1
sS'World\xe2\x80\x99'
p1193
I1
sS'nythpTGMiddle'
p1194
I1
sS'Ruth'
p1195
I2
sS'Sauce'
p1196
I1
sS'12px'
p1197
I8
sS'Driven'
p1198
I1
sS'Victims'
p1199
I1
sS'borderbottomcolor'
p1200
I1
sS'Polite'
p1201
I1
sS'long'
p1202
I1
sS'Side'
p1203
I1
sS'User'
p1204
I1
sS'Coverage'
p1205
I1
sS'elsewhere'
p1206
I1
sS'Most'
p1207
I1
sS'serif'
p1208
I1
sS'Opinionator'
p1209
I1
sS'Austin'
p1210
I1
sS'We\xe2\x80\x99ve'
p1211
I1
sS'us'
p1212
I2
sS'Books'
p1213
I3
sS'Aggressive'
p1214
I2
sS'0012'
p1215
I1
sS'nytmmFadingSlideShow'
p1216
I2
sS'To'
p1217
I4
sS'Attack'
p1218
I3
sS'New'
p1219
I19
sS'Upshot'
p1220
I1
sS'Manhattan'
p1221
I1
sS'Map'
p1222
I1
sS'scrutinized'
p1223
I1
sS'May'
p1224
I2
sS'Civilized'
p1225
I1
sS'application'
p1226
I1
sS'bcolumn'
p1227
I21
sS'Student'
p1228
I2
sS'eentvar'
p1229
I1
sS'pageManager'
p1230
I2
sS'Case'
p1231
I2
sS'Survivor\xe2\x80\x99s'
p1232
I1
sS'AN'
p1233
I1
sS'vigil'
p1234
I6
sS'Documentary'
p1235
I2
sS'Cafu00e9'
p1236
I1
sS'fighter'
p1237
I1
sS'Ad'
p1238
I1
sS'Weddings'
p1239
I1
sS'Al'
p1240
I1
sS'Migrant'
p1241
I2
sS'As'
p1242
I1
sS'weights'
p1243
I1
sS'At'
p1244
I2
sS'Village'
p1245
I1
sS'Carillon'
p1246
I1
sS'Newsletter'
p1247
I1
sS'scroll'
p1248
I1
sS'Sell'
p1249
I1
sS'Mother\xe2\x80\x99s'
p1250
I1
sS'Mortality'
p1251
I1
sS'Angelina'
p1252
I1
sS'Business'
p1253
I4
sS'LondonshortA'
p1254
I1
sS'Grief'
p1255
I1
sS'culinary'
p1256
I1
sS'getFlexData'
p1257
I2
sS'pthemecomments'
p1258
I1
sS'25px'
p1259
I1
sS'Not'
p1260
I5
sS'Now'
p1261
I7
sS'SaturdayshortA'
p1262
I3
sS'Region'
p1263
I2
sS'Celebrations'
p1264
I1
sS'Wheels'
p1265
I1
sS'Feeling'
p1266
I1
sS'continued'
p1267
I1
sS'shock'
p1268
I1
sS'Retailer'
p1269
I1
sS'Disguise'
p1270
I1
sS'functionrenew'
p1271
I1
sS'Pitt\xe2\x80\x99s'
p1272
I1
sS'rtifntvar'
p1273
I1
sS'Turkey'
p1274
I1
sS'Index'
p1275
I1
sS'FAUSSET'
p1276
I1
sS'Ru00e9publique'
p1277
I2
sS'Vegetables'
p1278
I1
sS'mural'
p1279
I2
sS'State'
p1280
I1
sS'video'
p1281
I1
sS'Sections'
p1282
I3
sS'Has'
p1283
I1
sS'Responses'
p1284
I1
sS'requiremap'
p1285
I1
sS'week\xe2\x80\x99s'
p1286
I2
sS'access'
p1287
I1
sS'France\xe2\x80\x99s'
p1288
I1
sS'Assault'
p1289
I2
sS'Link'
p1290
I2
sS'Line'
p1291
I2
sS'Swift'
p1292
I2
sS'Behemoth'
p1293
I1
sS'aColumn'
p1294
I6
sS'explore'
p1295
I1
sS'great'
p1296
I1
sS'otifObjectdefinePropertyObjectkeystryreturn'
p1297
I1
sS'GlutenFree'
p1298
I1
sS'tenvar'
p1299
I1
sS'18px'
p1300
I8
sS'Cries'
p1301
I1
sS'1245'
p1302
I1
sS'Download'
p1303
I1
sS'residents'
p1304
I1
sS'Photography'
p1305
I2
sS'Readers'
p1306
I5
sS'Kirp'
p1307
I1
sS'Multimedia'
p1308
I2
sS'\xe2\x80\x98Fall'
p1309
I1
sS'Contributing'
p1310
I1
sS'Treatment'
p1311
I3
sS'Draw'
p1312
I1
sS'from'
p1313
I2
sS'BOHLEN'
p1314
I1
sS'next'
p1315
I1
sS'Lens'
p1316
I1
sS'Matters'
p1317
I1
sS'24px'
p1318
I1
sS'requirehomepagemain'
p1319
I1
sS'Feast'
p1320
I1
sS'STYLING'
p1321
I2
sS'visibility'
p1322
I2
sS'Feature'
p1323
I1
sS'Slide'
p1324
I1
sS'Editorial'
p1325
I5
sS'WashingtoncreditDoug'
p1326
I2
sS'subscription'
p1327
I1
sS'Feedback'
p1328
I1
sS'column'
p1329
I4
sS'Video'
p1330
I6
sS'Offenses'
p1331
I1
sS'Police'
p1332
I1
sS'httpstatic01nytcomjsauthgrowldefault'
p1333
I1
sS'purposes'
p1334
I1
sS'LeftBank'
p1335
I1
sS'united'
p1336
I1
sS'PressimagecropslargeWidescreen573height322width573urlhttpstatic01nytcomimages20151115worldeurope20151115parishpslideOP4920151115parishpslideOP49largeWidescreen573v2jpgurlslideshow20151115worldeuropeattacksincentralpariss20151115parishpslideOP49htmlshorturlhttpnytims1kwdaDTapprovedforsyndicationtruedataid100000004038152slideurl20151115parishpslideYZLWimagetypephotocaptionfullA'
p1337
I1
sS'six'
p1338
I1
sS'photospotregion'
p1339
I3
sS'ViewedRecommended'
p1340
I1
sS'120000'
p1341
I1
sS'tereturn'
p1342
I1
sS'iconbefore'
p1343
I1
sS'criticized'
p1344
I1
sS'Subscribe'
p1345
I3
sS'Letters'
p1346
I3
sS'r1onridiegosnexportstgos7eSDFhidfunctionennexportseXL7HBIG9z0Blfunctionenfunction'
p1347
I1
sS'Kostyukov'
p1348
I2
sS'Politics'
p1349
I4
sS'httpa1nytcomassets'
p1350
I1
sS'Ginsburg'
p1351
I3
sS'marginbottom10px'
p1352
I1
sS'sfunction'
p1353
I1
sS'CELESTINE'
p1354
I1
sS'Minnesota'
p1355
I1
sS'byline'
p1356
I2
sS'la'
p1357
I6
sS'storythemefeature'
p1358
I3
sS'Brooks'
p1359
I1
sS'li'
p1360
I4
sS'watchingbetaoptin'
p1361
I3
sS'fontfamily'
p1362
I16
sS'stances'
p1363
I1
sS'2015'
p1364
I1
sS'paidPostFivePackMock'
p1365
I1
sS'2016'
p1366
I2
sS'auto'
p1367
I2
sS'Two'
p1368
I2
sS'Can'
p1369
I2
sS'messagecontainer'
p1370
I1
sS'Social'
p1371
I2
sS'front'
p1372
I3
sS'Venus'
p1373
I1
sS'transparent'
p1374
I1
sS'Respond'
p1375
I3
sS'ccolumnmiddlespanregion'
p1376
I4
sS'Say'
p1377
I1
sS'Replica'
p1378
I1
sS'10px'
p1379
I7
sS'Arts'
p1380
I8
sS'From'
p1381
I9
sS'700'
p1382
I8
sS'urlhttpgraphics8nytimescomnewsgraphics20150225electionnavigationassetsimageselection2016logopng'
p1383
I1
sS'meta'
p1384
I1
sS'cereturn'
p1385
I1
sS'Threaten'
p1386
I1
sS'Grips'
p1387
I1
sS'Toddler'
p1388
I3
sS'out'
p1389
I1
sS'Gravy'
p1390
I1
sS'Season'
p1391
I1
sS'\xe2\x80\x98Wonderland\xe2\x80\x99'
p1392
I1
sS'enoovar'
p1393
I1
sS'supports'
p1394
I1
sS'Grave'
p1395
I1
sS'Stage'
p1396
I2
sS'This'
p1397
I2
sS'NJ'
p1398
I1
sS'roonooexportsreturn'
p1399
I1
sS'Corrections'
p1400
I1
sS'Meet'
p1401
I2
sS'Topics'
p1402
I1
sS'Dayton'
p1403
I1
sS'keep'
p1404
I1
sS'repeaty'
p1405
I1
sS'ehttpsdocumentlocationprotocoltsrcehttpshttpwwwgoogletagservicescomtagjsgptjsvar'
p1406
I1
sS'ntexportsiffunctiontypeof'
p1407
I1
sS'Review'
p1408
I13
sS'Martin'
p1409
I1
sS'tributes'
p1410
I2
sS'North'
p1411
I2
sS'Eastern'
p1412
I1
sS'data'
p1413
I1
sS'Symbol'
p1414
I1
sS'WORK'
p1415
I1
sS'requirefoundationmain'
p1416
I2
sS'attack'
p1417
I1
sS'h6hover'
p1418
I4
sS'Trophy'
p1419
I1
sS'Stampede'
p1420
I1
sS'97px'
p1421
I1
sS'R'
p1422
I1
sS'fontsize'
p1423
I16
sS'foundationviewspagemanager'
p1424
I2
sS'Democratic'
p1425
I4
sS'rreturnvar'
p1426
I1
sS'\xe2\x80\x98Nabokov'
p1427
I1
sS'Buyers\xc2\xa0Family'
p1428
I1
sS'Edition'
p1429
I1
sS'requirejquerynyt'
p1430
I2
sS'Series'
p1431
I2
sS'Appetite'
p1432
I1
sS'getFlexDatadataoptions'
p1433
I1
sS'mediaslideshow'
p1434
I1
sS'Veteran'
p1435
I1
sS'fourbedroom'
p1436
I1
sS'Writers'
p1437
I1
sS'have'
p1438
I1
sS'need'
p1439
I1
sS'Soccer'
p1440
I1
sS'border'
p1441
I3
sS'Europe\xe2\x80\x99s'
p1442
I1
sS'325rem'
p1443
I1
sS'After'
p1444
I6
sS'chief'
p1445
I1
sS'authmtr'
p1446
I1
sS'Science'
p1447
I3
sS'accuracy'
p1448
I1
sS'Moines'
p1449
I1
sS'collaboration'
p1450
I1
sS'who'
p1451
I2
sS'01'
p1452
I1
sS'Games'
p1453
I1
sS'masthead'
p1454
I1
sS'homepage20151113101625jsfoundation'
p1455
I1
sS'Some'
p1456
I1
sS'Manners'
p1457
I1
sS'High'
p1458
I3
sS'Export'
p1459
I1
sS'nythpHideTimestamps'
p1460
I1
sS'Father\xe2\x80\x99s'
p1461
I2
sS'wounded'
p1462
I1
sS'Saturday'
p1463
I1
sS'09'
p1464
I1
sS'Paris'
p1465
I19
sS'text'
p1466
I1
sS'0036'
p1467
I1
sS'0033'
p1468
I1
sS'NYTDFlexTypespushtargetFT100000004038281typeFadingSlideShowdataoptionswidth190height126jsonphttpjson8nytimescomslideshow20151115uspoliticsdemocraticcandidatesdebateslideshowjsonplinkhttpwwwnytimescom20151115uspoliticsdemocraticdebatecbshtmlphotosphotourlcreditadvanceddelay3limitjsonp0renditionmediumFlexible177targetoverrideabbreviatecreditstrue'
p1469
I1
sS'Innovation'
p1470
I2
sS'SCHREUER'
p1471
I1
sS'30px'
p1472
I1
sS'Undo'
p1473
I1
sS'Craft'
p1474
I1
sS'York'
p1475
I15
sS'5px'
p1476
I3
sS'Legend'
p1477
I1
sS'Homes'
p1478
I4
sS'CHOZICK'
p1479
I1
sS'SHEEHAN'
p1480
I1
sS'Applause'
p1481
I1
sS'DategetTimeconcatiargumentsvar'
p1482
I1
sS'massacre'
p1483
I1
sS'999'
p1484
I4
sS'FretFree'
p1485
I1
sS'Fringes'
p1486
I1
sS'127'
p1487
I1
sS'129'
p1488
I1
sS'o0oppupapplystreturn'
p1489
I1
sS'Century'
p1490
I2
sS'ParisshortPeople'
p1491
I2
sS'Broadway'
p1492
I1
sS'FurlongGetty'
p1493
I1
sS'Badlands\xe2\x80\x99'
p1494
I1
sS'Alice\xe2\x80\x99s'
p1495
I1
sS'Unite'
p1496
I1
sS'officials'
p1497
I2
sS'Frank\xe2\x80\x99s'
p1498
I1
sS'165rem'
p1499
I1
sS'NYTDFlexTypespushtargetFT100000004037217typeHPLiveUpdate3dataoptionseventid7600eventslugparisattacksliveupdatesheaderLATEST'
p1500
I1
sS'Palatable'
p1501
I1
sS'Good'
p1502
I1
sS'Woozy'
p1503
I1
sS'Arrondissement'
p1504
I2
sS'flyfishing'
p1505
I1
sS'ParissummaryAt'
p1506
I1
sS'laureate'
p1507
I1
sS'Harvard'
p1508
I2
sS'21rem'
p1509
I1
sS'Republican'
p1510
I2
sS'Minute'
p1511
I2
sS'Kitchen'
p1512
I1
sS'ability'
p1513
I1
sS'2px'
p1514
I9
sS'weren\xe2\x80\x99t'
p1515
I1
sS'fontstyle'
p1516
I2
sS'Race'
p1517
I2
sS'display'
p1518
I15
sS'Camryn'
p1519
I1
sS'Design'
p1520
I1
sS'Lawyer'
p1521
I1
sS'ImagesimagecropslargeWidescreen573height322width573urlhttpstatic01nytcomimages20151115worldeurope20151115parishpslideI7S920151115parishpslideI7S9largeWidescreen573jpgurlslideshow20151115worldeuropeattacksincentralpariss20151115parishpslideI7S9htmlshorturlhttpnytims1RWi8nMapprovedforsyndicationtruedataid100000004038024slideurl20151115parishpslideX6R3imagetypephotocaptionfullPeople'
p1522
I1
sS'Campus'
p1523
I2
sS'World'
p1524
I4
sS'Her'
p1525
I2
sS'Music'
p1526
I3
sS'table'
p1527
I1
sS'promotronOpts'
p1528
I1
sS'\xe2\x80\x98CoAuthor\xe2\x80\x99'
p1529
I1
sS'Mired'
p1530
I1
sS'Get'
p1531
I1
sS'Hollande'
p1532
I1
sS'baseUrl'
p1533
I1
sS'Missouri8217s'
p1534
I1
sS'Brooklyn'
p1535
I2
sS'Obituaries'
p1536
I2
sS'Aziz'
p1537
I2
sS'killed'
p1538
I1
sS'f8e9d2'
p1539
I1
sS'liveupdateflextypev4js'
p1540
I1
sS'nythpTGRow'
p1541
I1
sS'backgroundrepeat'
p1542
I2
sS'runaroundRight'
p1543
I2
sS'kickers'
p1544
I1
sS'Merrimack'
p1545
I1
sS'Using'
p1546
I1
sS'Hot'
p1547
I1
sS'NOSSITER'
p1548
I1
sS'nytfranklinarialhelveticasansserif'
p1549
I2
sS'MORE'
p1550
I1
sS'Hope'
p1551
I1
sS'Policing'
p1552
I1
sS'PMNYT'
p1553
I1
sS'began'
p1554
I1
sS'defiant'
p1555
I1
sS'NYTimescom'
p1556
I2
sS'Manheim\xe2\x80\x99s'
p1557
I1
sS'Car'
p1558
I2
sS'Oxford'
p1559
I1
sS'Potatoes'
p1560
I1
sS'Order'
p1561
I2
sS'Gloria'
p1562
I2
sS'center'
p1563
I4
sS'Challenged'
p1564
I1
sS'Julia'
p1565
I1
sS'States'
p1566
I1
sS'352'
p1567
I1
sS'Have'
p1568
I2
sS'position'
p1569
I1
sS'latest'
p1570
I1
sS'Upheaval'
p1571
I1
sS'RICHARD'
p1572
I1
sS'moments'
p1573
I1
sS'Mother'
p1574
I2
sS'Access'
p1575
I1
sS'Sunday'
p1576
I10
sS'BY'
p1577
I1
sS'Be'
p1578
I3
sS'Company'
p1579
I1
sS'discuss'
p1580
I1
sS'nythpThanksgivingTable'
p1581
I1
sS'By'
p1582
I13
sS'bordercolor'
p1583
I2
sS'Rodham'
p1584
I1
sS'Thread'
p1585
I1
sS'Investigate'
p1586
I1
sS'know'
p1587
I1
sS'variants'
p1588
I11
sS'height'
p1589
I5
sS'Fashion'
p1590
I4
sS'testName'
p1591
I11
sS'tryTypekitloadcatche'
p1592
I1
sS'Desserts'
p1593
I1
sS'Durham'
p1594
I1
sS'Fear'
p1595
I2
sS'borderbottomwidth'
p1596
I1
sS'11px'
p1597
I6
sS'Samples'
p1598
I1
sS'Crossword'
p1599
I4
sS'Editor'
p1600
I2
sS'YorkshortA'
p1601
I1
sS'home'
p1602
I14
sS'Indicates'
p1603
I1
sS'leaving'
p1604
I2
sS'does'
p1605
I1
sS'AheadparentaddClassnythpBriefings'
p1606
I1
sS'FactChecking'
p1607
I1
sS'Killed'
p1608
I2
sS'Adviser'
p1609
I1
sS'windowmagnumprocessFlagslimitFabrikSavemoreFollowSuggestionsunfollowCommentshomepageOpinionKickerCssfollowFeatureallTheEmphasesvideoVHSCovervideoVHSHomepageCoveradditionalOpinionRegionshpViewabilityminiNavCountnewsEventHierarchyfreeTrialinsiderLaunch'
p1610
I1
sS'Inside'
p1611
I1
sS'Gary'
p1612
I1
sS'MICHAEL'
p1613
I2
sS'Up'
p1614
I1
sS'Us'
p1615
I2
sS'Steward'
p1616
I1
sS'after'
p1617
I2
sS'about'
p1618
I1
sS'hpHeader'
p1619
I25
sS'Bouquet'
p1620
I1
sS'US'
p1621
I5
sS'nythpDaypartRegion'
p1622
I6
sS'Rape'
p1623
I2
sS'dwrite'
p1624
I3
sS'Voyage'
p1625
I1
sS'windownewrelicnewrelicwindowNREUMvar'
p1626
I1
sS'own'
p1627
I1
sS'Alerts'
p1628
I1
sS'h6'
p1629
I44
sS'who\xe2\x80\x99s'
p1630
I1
sS'h4'
p1631
I2
sS'h5'
p1632
I2
sS'dataoptionseventid7600eventslugparisattacksliveupdatesheaderLATEST'
p1633
I1
sS'var'
p1634
I5
sS'November'
p1635
I1
sS'function'
p1636
I10
sS'HIGGINS'
p1637
I2
sS'PEAR'
p1638
I1
sS'Des'
p1639
I1
sS'Well'
p1640
I4
sS'Steinem'
p1641
I3
sS'portalheader'
p1642
I1
sS'Ted'
p1643
I3
sS'placed'
p1644
I2
sS'89'
p1645
I1
sS'monument'
p1646
I2
sS'Women'
p1647
I1
sS'Insurance'
p1648
I2
sS'\xc2\xbb'
p1649
I2
sS'nbspComments'
p1650
I4
sS'Writes'
p1651
I2
sS'marginbottom'
p1652
I12
sS'pie'
p1653
I1
sS'twist'
p1654
I1
sS'urlhttpi1nytcomimagesiconsiconalert12x12a81817png'
p1655
I1
sS'dietary'
p1656
I1
sS'Freshened'
p1657
I1
sS'identities'
p1658
I1
sS'Fate'
p1659
I1
sS'Wines'
p1660
I1
sS'Centered'
p1661
I2
sS'Delivery'
p1662
I1
sS'Islamic'
p1663
I1
sS'Gimbel\xe2\x80\x99s'
p1664
I1
sS'h1storyheading'
p1665
I1
sS'Know'
p1666
I1
sS'sick'
p1667
I1
sS'Improving'
p1668
I1
sS'HPHEADER'
p1669
I2
sS'Remove'
p1670
I1
sS'rObjectprototypehasOwnPropertynexportstD5DuLPfunctionenfunction'
p1671
I1
sS'Act'
p1672
I1
sS'Congressman'
p1673
I1
sS'friends'
p1674
I1
sS'Page'
p1675
I1
sS'Coach'
p1676
I1
sS'pocketregion'
p1677
I10
sS'Fights'
p1678
I1
sS'Site'
p1679
I3
sS'Channeling'
p1680
I1
sS'urlhttpwwwnytimescomslideshow20151115worldeuropeattacksincentralparishtmlheadlineAttacks'
p1681
I1
sS'Refined'
p1682
I1
s.